target datalayout = "e-m:e-p270:32:32-p271:32:32-p272:64:64-i64:64-i128:128-f80:128-n8:16:32:64-S128"
target triple = "x86_64-pc-linux-gnu"

; Function Attrs: mustprogress uwtable
define linkonce_odr noundef i32 @_ZN3tbb6detail2d119default_concurrencyEi(i32 noundef %0) #0 comdat {
  %2 = alloca i32, align 4
  store i32 %0, ptr %2, align 4
  %3 = load i32, ptr %2, align 4
  %4 = call noundef i32 @_ZN3tbb6detail2r124numa_default_concurrencyEi(i32 noundef %3)
  ret i32 %4
}

; Function Attrs: mustprogress nounwind uwtable
define linkonce_odr noundef nonnull align 4 dereferenceable(4) ptr @_ZSt3maxIiERKT_S2_S2_(ptr noundef nonnull align 4 dereferenceable(4) %0, ptr noundef nonnull align 4 dereferenceable(4) %1) #2 comdat {
  %3 = alloca ptr, align 8
  %4 = alloca ptr, align 8
  %5 = alloca ptr, align 8
  store ptr %0, ptr %4, align 8
  store ptr %1, ptr %5, align 8
  %6 = load ptr, ptr %4, align 8
  %7 = load i32, ptr %6, align 4
  %8 = load ptr, ptr %5, align 8
  %9 = load i32, ptr %8, align 4
  %10 = icmp slt i32 %7, %9
  br i1 %10, label %11, label %13

11:                                               ; preds = %2
  %12 = load ptr, ptr %5, align 8
  store ptr %12, ptr %3, align 8
  br label %15

13:                                               ; preds = %2
  %14 = load ptr, ptr %4, align 8
  store ptr %14, ptr %3, align 8
  br label %15

15:                                               ; preds = %13, %11
  %16 = load ptr, ptr %3, align 8
  ret ptr %16
}

; Function Attrs: mustprogress uwtable
define noundef i32 @_ZN32pxrInternal_v0_24__pxrReserved__31WorkGetPhysicalConcurrencyLimitEv() #0 {
  %1 = call noundef i32 @_ZN3tbb6detail2d119default_concurrencyEi(i32 noundef -1)
  ret i32 %1
}

; Function Attrs: mustprogress uwtable
define internal noundef i32 @_ZN32pxrInternal_v0_24__pxrReserved__L25Work_NormalizeThreadCountEi(i32 noundef %0) #0 {
  %2 = alloca i32, align 4
  %3 = alloca i32, align 4
  %4 = alloca i32, align 4
  store i32 %0, ptr %2, align 4
  %5 = load i32, ptr %2, align 4
  %6 = icmp sge i32 %5, 0
  br i1 %6, label %7, label %9

7:                                                ; preds = %1
  %8 = load i32, ptr %2, align 4
  br label %15

9:                                                ; preds = %1
  store i32 1, ptr %3, align 4
  %10 = load i32, ptr %2, align 4
  %11 = call noundef i32 @_ZN32pxrInternal_v0_24__pxrReserved__31WorkGetPhysicalConcurrencyLimitEv()
  %12 = add i32 %10, %11
  store i32 %12, ptr %4, align 4
  %13 = call noundef nonnull align 4 dereferenceable(4) ptr @_ZSt3maxIiERKT_S2_S2_(ptr noundef nonnull align 4 dereferenceable(4) %3, ptr noundef nonnull align 4 dereferenceable(4) %4)
  %14 = load i32, ptr %13, align 4
  br label %15

15:                                               ; preds = %9, %7
  %16 = phi i32 [ %8, %7 ], [ %14, %9 ]
  ret i32 %16
}

; Function Attrs: mustprogress uwtable
define void @_ZN32pxrInternal_v0_24__pxrReserved__31WorkSetConcurrencyLimitArgumentEi(i32 noundef %0) #0 {
  %2 = alloca i32, align 4
  store i32 %0, ptr %2, align 4
  %3 = load i32, ptr %2, align 4
  %4 = call noundef i32 @_ZN32pxrInternal_v0_24__pxrReserved__L25Work_NormalizeThreadCountEi(i32 noundef %3)
  call void @_ZN32pxrInternal_v0_24__pxrReserved__23WorkSetConcurrencyLimitEj(i32 noundef %4)
  ret void
}