; Function Attrs: mustprogress uwtable
define void @_ZN32pxrInternal_v0_24__pxrReserved__31WorkSetConcurrencyLimitArgumentEi(i32 noundef %0) local_unnamed_addr #0 {
  %2 = icmp sgt i32 %0, -1
  br i1 %2, label %_ZN32pxrInternal_v0_24__pxrReserved__L25Work_NormalizeThreadCountEi.exit, label %3

3:                                                ; preds = %1
  %4 = tail call noundef i32 @_ZN3tbb6detail2r124numa_default_concurrencyEi(i32 noundef -1)
  %5 = add i32 %4, %0
  %.sroa.speculated.i = tail call i32 @llvm.smax.i32(i32 %5, i32 1)
  br label %_ZN32pxrInternal_v0_24__pxrReserved__L25Work_NormalizeThreadCountEi.exit

_ZN32pxrInternal_v0_24__pxrReserved__L25Work_NormalizeThreadCountEi.exit: ; preds = %1, %3
  %6 = phi i32 [ %.sroa.speculated.i, %3 ], [ %0, %1 ]
  tail call void @_ZN32pxrInternal_v0_24__pxrReserved__23WorkSetConcurrencyLimitEj(i32 noundef %6)
  ret void
}